target datalayout = "e-m:e-p270:32:32-p271:32:32-p272:64:64-i64:64-i128:128-f80:128-n8:16:32:64-S128"
target triple = "x86_64-pc-linux-gnu"

%struct.ident_t = type { i32, i32, i32, i32, ptr }
%"class.ncnn::LayerNorm" = type { %"class.ncnn::Layer", i32, float, i32, %"class.ncnn::Mat", %"class.ncnn::Mat" }
%"class.ncnn::Layer" = type { ptr, i8, i8, i8, i8, i8, i8, i8, i8, i8, i8, i8, i8, i8, i8, i8, i8, i8, i8, i8, i8, i32, ptr, i32, %"class.std::__cxx11::basic_string", %"class.std::__cxx11::basic_string", %"class.std::vector", %"class.std::vector", %"class.std::vector.3", %"class.std::vector.3" }
%"class.std::__cxx11::basic_string" = type { %"struct.std::__cxx11::basic_string<char>::_Alloc_hider", i64, %union.anon }
%"struct.std::__cxx11::basic_string<char>::_Alloc_hider" = type { ptr }
%union.anon = type { i64, [8 x i8] }
%"class.std::vector" = type { %"struct.std::_Vector_base" }
%"struct.std::_Vector_base" = type { %"struct.std::_Vector_base<int, std::allocator<int>>::_Vector_impl" }
%"struct.std::_Vector_base<int, std::allocator<int>>::_Vector_impl" = type { %"struct.std::_Vector_base<int, std::allocator<int>>::_Vector_impl_data" }
%"struct.std::_Vector_base<int, std::allocator<int>>::_Vector_impl_data" = type { ptr, ptr, ptr }
%"class.std::vector.3" = type { %"struct.std::_Vector_base.4" }
%"struct.std::_Vector_base.4" = type { %"struct.std::_Vector_base<ncnn::Mat, std::allocator<ncnn::Mat>>::_Vector_impl" }
%"struct.std::_Vector_base<ncnn::Mat, std::allocator<ncnn::Mat>>::_Vector_impl" = type { %"struct.std::_Vector_base<ncnn::Mat, std::allocator<ncnn::Mat>>::_Vector_impl_data" }
%"struct.std::_Vector_base<ncnn::Mat, std::allocator<ncnn::Mat>>::_Vector_impl_data" = type { ptr, ptr, ptr }
%"class.ncnn::Mat" = type { ptr, ptr, i64, i32, ptr, i32, i32, i32, i32, i32, i64 }

@1 = private unnamed_addr constant %struct.ident_t { i32 0, i32 514, i32 0, i32 22, ptr @0 }, align 8

; Function Attrs: noinline noreturn nounwind uwtable
define linkonce_odr hidden void @__clang_call_terminate(ptr noundef %0) #8 comdat {
  %2 = call ptr @__cxa_begin_catch(ptr %0) #7
  call void @_ZSt9terminatev() #17
  unreachable
}

; Function Attrs: alwaysinline mustprogress nounwind uwtable
define linkonce_odr hidden noundef ptr @_ZNK4ncnn3MatcvPKT_IfEEv(ptr noundef nonnull align 8 dereferenceable(72) %0) #4 comdat align 2 {
  %2 = alloca ptr, align 8
  store ptr %0, ptr %2, align 8, !tbaa !13
  %3 = load ptr, ptr %2, align 8
  %4 = getelementptr inbounds nuw %"class.ncnn::Mat", ptr %3, i32 0, i32 0
  %5 = load ptr, ptr %4, align 8, !tbaa !50
  ret ptr %5
}

; Function Attrs: alwaysinline mustprogress nounwind uwtable
define linkonce_odr hidden noundef ptr @_ZN4ncnn3Mat3rowEi(ptr noundef nonnull align 8 dereferenceable(72) %0, i32 noundef %1) #4 comdat align 2 {
  %3 = alloca ptr, align 8
  %4 = alloca i32, align 4
  store ptr %0, ptr %3, align 8, !tbaa !13
  store i32 %1, ptr %4, align 4, !tbaa !23
  %5 = load ptr, ptr %3, align 8
  %6 = getelementptr inbounds nuw %"class.ncnn::Mat", ptr %5, i32 0, i32 0
  %7 = load ptr, ptr %6, align 8, !tbaa !50
  %8 = getelementptr inbounds nuw %"class.ncnn::Mat", ptr %5, i32 0, i32 6
  %9 = load i32, ptr %8, align 4, !tbaa !25
  %10 = sext i32 %9 to i64
  %11 = load i32, ptr %4, align 4, !tbaa !23
  %12 = sext i32 %11 to i64
  %13 = mul i64 %10, %12
  %14 = getelementptr inbounds nuw %"class.ncnn::Mat", ptr %5, i32 0, i32 2
  %15 = load i64, ptr %14, align 8, !tbaa !64
  %16 = mul i64 %13, %15
  %17 = getelementptr inbounds nuw i8, ptr %7, i64 %16
  ret ptr %17
}

; Function Attrs: alwaysinline norecurse nounwind uwtable
define internal void @_ZNK4ncnn13LayerNorm_x8615forward_inplaceERNS_3MatERKNS_6OptionE.omp_outlined(ptr noalias noundef %0, ptr noalias noundef %1, ptr noundef nonnull align 4 dereferenceable(4) %2, ptr noundef nonnull align 8 dereferenceable(72) %3, ptr noundef %4, ptr noundef nonnull align 4 dereferenceable(4) %5, ptr noundef nonnull align 4 dereferenceable(4) %6) #6 personality ptr @__gxx_personality_v0 {
  %8 = alloca ptr, align 8
  %9 = alloca ptr, align 8
  %10 = alloca ptr, align 8
  %11 = alloca ptr, align 8
  %12 = alloca ptr, align 8
  %13 = alloca ptr, align 8
  %14 = alloca ptr, align 8
  %15 = alloca ptr, align 8
  %16 = alloca i32, align 4
  %17 = alloca i32, align 4
  %18 = alloca i32, align 4
  %19 = alloca i32, align 4
  %20 = alloca i32, align 4
  %21 = alloca i32, align 4
  %22 = alloca i32, align 4
  %23 = alloca i32, align 4
  %24 = alloca i32, align 4
  %25 = alloca ptr, align 8
  store ptr %0, ptr %8, align 8, !tbaa !63
  store ptr %1, ptr %9, align 8, !tbaa !63
  store ptr %2, ptr %10, align 8, !tbaa !63
  store ptr %3, ptr %11, align 8, !tbaa !13
  store ptr %4, ptr %12, align 8, !tbaa !11
  store ptr %5, ptr %13, align 8, !tbaa !63
  store ptr %6, ptr %14, align 8, !tbaa !63
  %26 = load ptr, ptr %10, align 8, !tbaa !63
  %27 = load ptr, ptr %11, align 8, !tbaa !13
  %28 = load ptr, ptr %12, align 8, !tbaa !11
  %29 = load ptr, ptr %13, align 8, !tbaa !63
  %30 = load ptr, ptr %14, align 8, !tbaa !63
  store ptr %27, ptr %15, align 8
  call void @llvm.lifetime.start.p0(i64 4, ptr %16) #7
  call void @llvm.lifetime.start.p0(i64 4, ptr %17) #7
  %31 = load i32, ptr %26, align 4, !tbaa !23
  store i32 %31, ptr %17, align 4, !tbaa !23
  call void @llvm.lifetime.start.p0(i64 4, ptr %18) #7
  %32 = load i32, ptr %17, align 4, !tbaa !23
  %33 = sub nsw i32 %32, 0
  %34 = sdiv i32 %33, 1
  %35 = sub nsw i32 %34, 1
  store i32 %35, ptr %18, align 4, !tbaa !23
  call void @llvm.lifetime.start.p0(i64 4, ptr %19) #7
  store i32 0, ptr %19, align 4, !tbaa !23
  call void @llvm.lifetime.end.p0(i64 4, ptr %19) #7
  %36 = load i32, ptr %17, align 4, !tbaa !23
  %37 = icmp slt i32 0, %36
  br i1 %37, label %38, label %85

38:                                               ; preds = %7
  call void @llvm.lifetime.start.p0(i64 4, ptr %20) #7
  store i32 0, ptr %20, align 4, !tbaa !23
  call void @llvm.lifetime.start.p0(i64 4, ptr %21) #7
  %39 = load i32, ptr %18, align 4, !tbaa !23
  store i32 %39, ptr %21, align 4, !tbaa !23
  call void @llvm.lifetime.start.p0(i64 4, ptr %22) #7
  store i32 1, ptr %22, align 4, !tbaa !23
  call void @llvm.lifetime.start.p0(i64 4, ptr %23) #7
  store i32 0, ptr %23, align 4, !tbaa !23
  call void @llvm.lifetime.start.p0(i64 4, ptr %24) #7
  %40 = load ptr, ptr %8, align 8
  %41 = load i32, ptr %40, align 4, !tbaa !23
  call void @__kmpc_for_static_init_4(ptr @1, i32 %41, i32 34, ptr %23, ptr %20, ptr %21, ptr %22, i32 1, i32 1)
  %42 = load i32, ptr %21, align 4, !tbaa !23
  %43 = load i32, ptr %18, align 4, !tbaa !23
  %44 = icmp sgt i32 %42, %43
  br i1 %44, label %45, label %47

45:                                               ; preds = %38
  %46 = load i32, ptr %18, align 4, !tbaa !23
  br label %49

47:                                               ; preds = %38
  %48 = load i32, ptr %21, align 4, !tbaa !23
  br label %49

49:                                               ; preds = %47, %45
  %50 = phi i32 [ %46, %45 ], [ %48, %47 ]
  store i32 %50, ptr %21, align 4, !tbaa !23
  %51 = load i32, ptr %20, align 4, !tbaa !23
  store i32 %51, ptr %16, align 4, !tbaa !23
  br label %52

52:                                               ; preds = %78, %49
  %53 = load i32, ptr %16, align 4, !tbaa !23
  %54 = load i32, ptr %21, align 4, !tbaa !23
  %55 = icmp sle i32 %53, %54
  br i1 %55, label %57, label %56

56:                                               ; preds = %52
  br label %81

57:                                               ; preds = %52
  %58 = load i32, ptr %16, align 4, !tbaa !23
  %59 = mul nsw i32 %58, 1
  %60 = add nsw i32 0, %59
  store i32 %60, ptr %24, align 4, !tbaa !23
  call void @llvm.lifetime.start.p0(i64 8, ptr %25) #7
  %61 = load ptr, ptr %15, align 8, !tbaa !13
  %62 = load i32, ptr %24, align 4, !tbaa !23
  %63 = invoke noundef ptr @_ZN4ncnn3Mat3rowEi(ptr noundef nonnull align 8 dereferenceable(72) %61, i32 noundef %62)
          to label %64 unwind label %86

64:                                               ; preds = %57
  store ptr %63, ptr %25, align 8, !tbaa !28
  %65 = load ptr, ptr %25, align 8, !tbaa !28
  %66 = getelementptr inbounds nuw %"class.ncnn::LayerNorm", ptr %28, i32 0, i32 4
  %67 = invoke noundef ptr @_ZNK4ncnn3MatcvPKT_IfEEv(ptr noundef nonnull align 8 dereferenceable(72) %66)
          to label %68 unwind label %86

68:                                               ; preds = %64
  %69 = getelementptr inbounds nuw %"class.ncnn::LayerNorm", ptr %28, i32 0, i32 5
  %70 = invoke noundef ptr @_ZNK4ncnn3MatcvPKT_IfEEv(ptr noundef nonnull align 8 dereferenceable(72) %69)
          to label %71 unwind label %86

71:                                               ; preds = %68
  %72 = getelementptr inbounds nuw %"class.ncnn::LayerNorm", ptr %28, i32 0, i32 2
  %73 = load float, ptr %72, align 4, !tbaa !30
  %74 = load i32, ptr %29, align 4, !tbaa !23
  %75 = load i32, ptr %30, align 4, !tbaa !23
  invoke void @_ZN4ncnnL9layernormEPfPKfS2_fii(ptr noundef %65, ptr noundef %67, ptr noundef %70, float noundef nofpclass(nan inf) %73, i32 noundef %74, i32 noundef %75)
          to label %76 unwind label %86

76:                                               ; preds = %71
  call void @llvm.lifetime.end.p0(i64 8, ptr %25) #7
  br label %77

77:                                               ; preds = %76
  br label %78

78:                                               ; preds = %77
  %79 = load i32, ptr %16, align 4, !tbaa !23
  %80 = add nsw i32 %79, 1
  store i32 %80, ptr %16, align 4, !tbaa !23
  br label %52

81:                                               ; preds = %56
  br label %82

82:                                               ; preds = %81
  %83 = load ptr, ptr %8, align 8
  %84 = load i32, ptr %83, align 4, !tbaa !23
  call void @__kmpc_for_static_fini(ptr @1, i32 %84)
  call void @llvm.lifetime.end.p0(i64 4, ptr %24) #7
  call void @llvm.lifetime.end.p0(i64 4, ptr %23) #7
  call void @llvm.lifetime.end.p0(i64 4, ptr %22) #7
  call void @llvm.lifetime.end.p0(i64 4, ptr %21) #7
  call void @llvm.lifetime.end.p0(i64 4, ptr %20) #7
  br label %85

85:                                               ; preds = %82, %7
  call void @llvm.lifetime.end.p0(i64 4, ptr %18) #7
  call void @llvm.lifetime.end.p0(i64 4, ptr %17) #7
  call void @llvm.lifetime.end.p0(i64 4, ptr %16) #7
  ret void

86:                                               ; preds = %71, %68, %64, %57
  %87 = landingpad { ptr, i32 }
          catch ptr null
  %88 = extractvalue { ptr, i32 } %87, 0
  call void @__clang_call_terminate(ptr %88) #17
  unreachable
}