; Function Attrs: alwaysinline norecurse nounwind uwtable
define internal void @_ZNK4ncnn13LayerNorm_x8615forward_inplaceERNS_3MatERKNS_6OptionE.omp_outlined(ptr noalias noundef readonly captures(none) %0, ptr noalias readnone captures(none) %1, ptr noundef nonnull readonly align 4 captures(none) dereferenceable(4) %2, ptr noundef nonnull readonly align 8 captures(none) dereferenceable(72) %3, ptr noundef readonly captures(none) %4, ptr noundef nonnull readonly align 4 captures(none) dereferenceable(4) %5, ptr noundef nonnull readonly align 4 captures(none) dereferenceable(4) %6) #6 personality ptr @__gxx_personality_v0 {
  %8 = alloca i32, align 4
  %9 = alloca i32, align 4
  %10 = alloca i32, align 4
  %11 = alloca i32, align 4
  %12 = load i32, ptr %2, align 4, !tbaa !20
  %13 = icmp sgt i32 %12, 0
  br i1 %13, label %14, label %41

14:                                               ; preds = %7
  %15 = add nsw i32 %12, -1
  call void @llvm.lifetime.start.p0(i64 4, ptr nonnull %8) #7
  store i32 0, ptr %8, align 4, !tbaa !20
  call void @llvm.lifetime.start.p0(i64 4, ptr nonnull %9) #7
  store i32 %15, ptr %9, align 4, !tbaa !20
  call void @llvm.lifetime.start.p0(i64 4, ptr nonnull %10) #7
  store i32 1, ptr %10, align 4, !tbaa !20
  call void @llvm.lifetime.start.p0(i64 4, ptr nonnull %11) #7
  store i32 0, ptr %11, align 4, !tbaa !20
  %16 = load i32, ptr %0, align 4, !tbaa !20
  call void @__kmpc_for_static_init_4(ptr nonnull @1, i32 %16, i32 34, ptr nonnull %11, ptr nonnull %8, ptr nonnull %9, ptr nonnull %10, i32 1, i32 1)
  %17 = load i32, ptr %9, align 4, !tbaa !20
  %18 = call i32 @llvm.smin.i32(i32 %17, i32 %15)
  store i32 %18, ptr %9, align 4, !tbaa !20
  %19 = load i32, ptr %8, align 4, !tbaa !20
  %.not17 = icmp sgt i32 %19, %18
  br i1 %.not17, label %._crit_edge, label %.lr.ph

.lr.ph:                                           ; preds = %14
  %20 = getelementptr inbounds nuw i8, ptr %3, i64 44
  %21 = getelementptr inbounds nuw i8, ptr %3, i64 16
  %22 = getelementptr inbounds nuw i8, ptr %4, i64 224
  %23 = getelementptr inbounds nuw i8, ptr %4, i64 296
  %24 = getelementptr inbounds nuw i8, ptr %4, i64 212
  %25 = sext i32 %19 to i64
  br label %26

26:                                               ; preds = %.lr.ph, %26
  %indvars.iv = phi i64 [ %25, %.lr.ph ], [ %indvars.iv.next, %26 ]
  %27 = load ptr, ptr %3, align 8, !tbaa !16
  %28 = load i32, ptr %20, align 4, !tbaa !21
  %29 = sext i32 %28 to i64
  %30 = mul nsw i64 %indvars.iv, %29
  %31 = load i64, ptr %21, align 8, !tbaa !57
  %32 = mul i64 %30, %31
  %33 = getelementptr inbounds nuw i8, ptr %27, i64 %32
  %34 = load ptr, ptr %22, align 8, !tbaa !16
  %35 = load ptr, ptr %23, align 8, !tbaa !16
  %36 = load float, ptr %24, align 4, !tbaa !24
  %37 = load i32, ptr %5, align 4, !tbaa !20
  %38 = load i32, ptr %6, align 4, !tbaa !20
  call fastcc void @_ZN4ncnnL9layernormEPfPKfS2_fii(ptr noundef %33, ptr noundef %34, ptr noundef %35, float noundef nofpclass(nan inf) %36, i32 noundef %37, i32 noundef %38)
  %indvars.iv.next = add nsw i64 %indvars.iv, 1
  %39 = load i32, ptr %9, align 4, !tbaa !20
  %40 = sext i32 %39 to i64
  %.not.not = icmp slt i64 %indvars.iv, %40
  br i1 %.not.not, label %26, label %._crit_edge

._crit_edge:                                      ; preds = %26, %14
  call void @__kmpc_for_static_fini(ptr nonnull @1, i32 %16)
  call void @llvm.lifetime.end.p0(i64 4, ptr nonnull %11) #7
  call void @llvm.lifetime.end.p0(i64 4, ptr nonnull %10) #7
  call void @llvm.lifetime.end.p0(i64 4, ptr nonnull %9) #7
  call void @llvm.lifetime.end.p0(i64 4, ptr nonnull %8) #7
  br label %41

41:                                               ; preds = %._crit_edge, %7
  ret void
}